; Function Attrs: mustprogress nounwind uwtable
define dso_local noundef zeroext i1 @_ZN4llvm12IRTranslator15translateFreezeERKNS_4UserERNS_16MachineIRBuilderE(ptr noundef nonnull align 8 dereferenceable(1848) %0, ptr noundef nonnull align 8 dereferenceable(24) %1, ptr noundef nonnull align 8 dereferenceable(88) %2) local_unnamed_addr #0 align 2 {
  %4 = alloca [1 x %"class.llvm::DstOp"], align 8
  %5 = alloca [1 x %"class.llvm::SrcOp"], align 8
  %6 = tail call { ptr, i64 } @_ZN4llvm12IRTranslator16getOrCreateVRegsERKNS_5ValueE(ptr noundef nonnull align 8 dereferenceable(1848) %0, ptr noundef nonnull align 8 dereferenceable(24) %1)
  %7 = extractvalue { ptr, i64 } %6, 0
  %8 = extractvalue { ptr, i64 } %6, 1
  %9 = getelementptr inbounds nuw i8, ptr %1, i64 4
  %10 = load i32, ptr %9, align 4
  %11 = and i32 %10, 1073741824
  %.not.i.i = icmp eq i32 %11, 0
  br i1 %.not.i.i, label %15, label %12

12:                                               ; preds = %3
  %13 = getelementptr inbounds i8, ptr %1, i64 -8
  %14 = load ptr, ptr %13, align 8
  br label %_ZNK4llvm4User10getOperandEj.exit

15:                                               ; preds = %3
  %16 = and i32 %10, 134217727
  %17 = zext nneg i32 %16 to i64
  %18 = sub nsw i64 0, %17
  %19 = getelementptr inbounds %"class.llvm::Use", ptr %1, i64 %18
  br label %_ZNK4llvm4User10getOperandEj.exit

_ZNK4llvm4User10getOperandEj.exit:                ; preds = %12, %15
  %20 = phi ptr [ %14, %12 ], [ %19, %15 ]
  %21 = load ptr, ptr %20, align 8
  %22 = tail call { ptr, i64 } @_ZN4llvm12IRTranslator16getOrCreateVRegsERKNS_5ValueE(ptr noundef nonnull align 8 dereferenceable(1848) %0, ptr noundef nonnull align 8 dereferenceable(24) %21)
  %23 = extractvalue { ptr, i64 } %22, 0
  %.not = icmp eq i64 %8, 0
  br i1 %.not, label %._crit_edge, label %.lr.ph

.lr.ph:                                           ; preds = %_ZNK4llvm4User10getOperandEj.exit
  %.sroa.213.0..sroa_idx = getelementptr inbounds i8, ptr %4, i64 8
  %.sroa.210.0..sroa_idx = getelementptr inbounds i8, ptr %5, i64 16
  br label %24

24:                                               ; preds = %.lr.ph, %24
  %25 = phi i64 [ 0, %.lr.ph ], [ %33, %24 ]
  %.018 = phi i32 [ 0, %.lr.ph ], [ %32, %24 ]
  %26 = getelementptr inbounds %"class.llvm::Register", ptr %7, i64 %25
  %.sroa.02.0.copyload = load i32, ptr %26, align 4
  %27 = getelementptr inbounds %"class.llvm::Register", ptr %23, i64 %25
  %.sroa.01.0.copyload = load i32, ptr %27, align 4
  call void @llvm.lifetime.start.p0(i64 16, ptr nonnull %4)
  call void @llvm.lifetime.start.p0(i64 24, ptr nonnull %5)
  store i32 %.sroa.02.0.copyload, ptr %4, align 8
  store i32 1, ptr %.sroa.213.0..sroa_idx, align 8
  store i32 %.sroa.01.0.copyload, ptr %5, align 8
  store i32 0, ptr %.sroa.210.0..sroa_idx, align 8
  %28 = load ptr, ptr %2, align 8
  %29 = getelementptr inbounds i8, ptr %28, i64 32
  %30 = load ptr, ptr %29, align 8
  %31 = call { ptr, ptr } %30(ptr noundef nonnull align 8 dereferenceable(88) %2, i32 noundef 80, ptr nonnull %4, i64 1, ptr nonnull %5, i64 1, i64 0) #23
  call void @llvm.lifetime.end.p0(i64 16, ptr nonnull %4)
  call void @llvm.lifetime.end.p0(i64 24, ptr nonnull %5)
  %32 = add i32 %.018, 1
  %33 = zext i32 %32 to i64
  %34 = icmp ugt i64 %8, %33
  br i1 %34, label %24, label %._crit_edge, !llvm.loop !226

._crit_edge:                                      ; preds = %24, %_ZNK4llvm4User10getOperandEj.exit
  ret i1 true
}